; Function Attrs: mustprogress nounwind uwtable
define hidden void @_ZN7datalog3clpD2Ev(ptr noundef nonnull align 8 dereferenceable(56) %this) unnamed_addr #4 align 2 personality ptr @__gxx_personality_v0 {
entry:
  store ptr getelementptr inbounds ({ [26 x ptr] }, ptr @_ZTVN7datalog3clpE, i64 0, i32 0, i64 2), ptr %this, align 8
  %m_imp = getelementptr inbounds i8, ptr %this, i64 48
  %0 = load ptr, ptr %m_imp, align 8
  %cmp.i = icmp eq ptr %0, null
  br i1 %cmp.i, label %invoke.cont, label %if.end.i

if.end.i:                                         ; preds = %entry
  tail call void @_ZN7datalog3clp3impD2Ev(ptr noundef nonnull align 8 dereferenceable(1428) %0) #20
  invoke void @_ZN6memory10deallocateEPv(ptr noundef nonnull %0)
          to label %invoke.cont unwind label %terminate.lpad

invoke.cont:                                      ; preds = %entry, %if.end.i
  store ptr getelementptr inbounds ({ [26 x ptr] }, ptr @_ZTVN7datalog11engine_baseE, i64 0, i32 0, i64 2), ptr %this, align 8
  %m_name.i = getelementptr inbounds i8, ptr %this, i64 16
  tail call void @_ZNSt7__cxx1112basic_stringIcSt11char_traitsIcESaIcEED1Ev(ptr noundef nonnull align 8 dereferenceable(32) %m_name.i) #20
  ret void

terminate.lpad:                                   ; preds = %if.end.i
  %1 = landingpad { ptr, i32 }
          catch ptr null
  %2 = extractvalue { ptr, i32 } %1, 0
  tail call void @__clang_call_terminate(ptr %2) #22
  unreachable
}